target datalayout = "e-m:e-p270:32:32-p271:32:32-p272:64:64-i64:64-i128:128-f80:128-n8:16:32:64-S128"
target triple = "x86_64-pc-linux-gnu"

%struct.WebPPicture = type { i32, i32, i32, i32, ptr, ptr, ptr, i32, i32, ptr, i32, [2 x i32], ptr, i32, [3 x i32], ptr, ptr, i32, ptr, ptr, i32, ptr, ptr, [3 x i32], ptr, ptr, [8 x i32], ptr, ptr, [2 x ptr] }

; Function Attrs: nounwind uwtable
define internal double @GetPSNR(double noundef %0, double noundef %1) #0 {
  %3 = alloca double, align 8
  %4 = alloca double, align 8
  store double %0, ptr %3, align 8
  store double %1, ptr %4, align 8
  %5 = load double, ptr %3, align 8
  %6 = fcmp ogt double %5, 0.000000e+00
  br i1 %6, label %7, label %18

7:                                                ; preds = %2
  %8 = load double, ptr %4, align 8
  %9 = fcmp ogt double %8, 0.000000e+00
  br i1 %9, label %10, label %18

10:                                               ; preds = %7
  %11 = load double, ptr %3, align 8
  %12 = load double, ptr %4, align 8
  %13 = fmul double %12, 2.550000e+02
  %14 = fmul double %13, 2.550000e+02
  %15 = fdiv double %11, %14
  %16 = call double @log(double noundef %15) #3
  %17 = fmul double 0xC0115F2CEBF15542, %16
  br label %19

18:                                               ; preds = %7, %2
  br label %19

19:                                               ; preds = %18, %10
  %20 = phi double [ %17, %10 ], [ 9.900000e+01, %18 ]
  ret double %20
}

; Function Attrs: nounwind uwtable
define internal double @GetLogSSIM(double noundef %0, double noundef %1) #0 {
  %3 = alloca double, align 8
  %4 = alloca double, align 8
  store double %0, ptr %3, align 8
  store double %1, ptr %4, align 8
  %5 = load double, ptr %4, align 8
  %6 = fcmp ogt double %5, 0.000000e+00
  br i1 %6, label %7, label %11

7:                                                ; preds = %2
  %8 = load double, ptr %3, align 8
  %9 = load double, ptr %4, align 8
  %10 = fdiv double %8, %9
  br label %12

11:                                               ; preds = %2
  br label %12

12:                                               ; preds = %11, %7
  %13 = phi double [ %10, %7 ], [ 1.000000e+00, %11 ]
  store double %13, ptr %3, align 8
  %14 = load double, ptr %3, align 8
  %15 = fcmp olt double %14, 1.000000e+00
  br i1 %15, label %16, label %21

16:                                               ; preds = %12
  %17 = load double, ptr %3, align 8
  %18 = fsub double 1.000000e+00, %17
  %19 = call double @log10(double noundef %18) #3
  %20 = fmul double -1.000000e+01, %19
  br label %22

21:                                               ; preds = %12
  br label %22

22:                                               ; preds = %21, %16
  %23 = phi double [ %20, %16 ], [ 9.900000e+01, %21 ]
  ret double %23
}

; Function Attrs: nounwind uwtable
define internal i32 @WebPPictureInit(ptr noundef %0) #0 {
  %2 = alloca ptr, align 8
  store ptr %0, ptr %2, align 8
  %3 = load ptr, ptr %2, align 8
  %4 = call i32 @WebPPictureInitInternal(ptr noundef %3, i32 noundef 528)
  ret i32 %4
}

; Function Attrs: nounwind uwtable
define i32 @WebPPictureDistortion(ptr noundef %0, ptr noundef %1, i32 noundef %2, ptr noundef %3) #0 {
  %5 = alloca i32, align 4
  %6 = alloca ptr, align 8
  %7 = alloca ptr, align 8
  %8 = alloca i32, align 4
  %9 = alloca ptr, align 8
  %10 = alloca i32, align 4
  %11 = alloca i32, align 4
  %12 = alloca i32, align 4
  %13 = alloca i32, align 4
  %14 = alloca %struct.WebPPicture, align 8
  %15 = alloca %struct.WebPPicture, align 8
  %16 = alloca double, align 8
  %17 = alloca double, align 8
  %18 = alloca float, align 4
  %19 = alloca i64, align 8
  %20 = alloca i64, align 8
  %21 = alloca i32, align 4
  store ptr %0, ptr %6, align 8
  store ptr %1, ptr %7, align 8
  store i32 %2, ptr %8, align 4
  store ptr %3, ptr %9, align 8
  store i32 0, ptr %13, align 4
  store double 0.000000e+00, ptr %16, align 8
  store double 0.000000e+00, ptr %17, align 8
  %22 = load ptr, ptr %6, align 8
  %23 = icmp eq ptr %22, null
  br i1 %23, label %46, label %24

24:                                               ; preds = %4
  %25 = load ptr, ptr %7, align 8
  %26 = icmp eq ptr %25, null
  br i1 %26, label %46, label %27

27:                                               ; preds = %24
  %28 = load ptr, ptr %6, align 8
  %29 = getelementptr inbounds %struct.WebPPicture, ptr %28, i32 0, i32 2
  %30 = load i32, ptr %29, align 8
  %31 = load ptr, ptr %7, align 8
  %32 = getelementptr inbounds %struct.WebPPicture, ptr %31, i32 0, i32 2
  %33 = load i32, ptr %32, align 8
  %34 = icmp ne i32 %30, %33
  br i1 %34, label %46, label %35

35:                                               ; preds = %27
  %36 = load ptr, ptr %6, align 8
  %37 = getelementptr inbounds %struct.WebPPicture, ptr %36, i32 0, i32 3
  %38 = load i32, ptr %37, align 4
  %39 = load ptr, ptr %7, align 8
  %40 = getelementptr inbounds %struct.WebPPicture, ptr %39, i32 0, i32 3
  %41 = load i32, ptr %40, align 4
  %42 = icmp ne i32 %38, %41
  br i1 %42, label %46, label %43

43:                                               ; preds = %35
  %44 = load ptr, ptr %9, align 8
  %45 = icmp eq ptr %44, null
  br i1 %45, label %46, label %47

46:                                               ; preds = %43, %35, %27, %24, %4
  store i32 0, ptr %5, align 4
  br label %160

47:                                               ; preds = %43
  call void @VP8SSIMDspInit()
  %48 = call i32 @WebPPictureInit(ptr noundef %14)
  %49 = icmp ne i32 %48, 0
  br i1 %49, label %50, label %53

50:                                               ; preds = %47
  %51 = call i32 @WebPPictureInit(ptr noundef %15)
  %52 = icmp ne i32 %51, 0
  br i1 %52, label %54, label %53

53:                                               ; preds = %50, %47
  store i32 0, ptr %5, align 4
  br label %160

54:                                               ; preds = %50
  %55 = load ptr, ptr %6, align 8
  %56 = getelementptr inbounds %struct.WebPPicture, ptr %55, i32 0, i32 2
  %57 = load i32, ptr %56, align 8
  store i32 %57, ptr %10, align 4
  %58 = load ptr, ptr %6, align 8
  %59 = getelementptr inbounds %struct.WebPPicture, ptr %58, i32 0, i32 3
  %60 = load i32, ptr %59, align 4
  store i32 %60, ptr %11, align 4
  %61 = load ptr, ptr %6, align 8
  %62 = load i32, ptr %10, align 4
  %63 = load i32, ptr %11, align 4
  %64 = call i32 @WebPPictureView(ptr noundef %61, i32 noundef 0, i32 noundef 0, i32 noundef %62, i32 noundef %63, ptr noundef %14)
  %65 = icmp ne i32 %64, 0
  br i1 %65, label %67, label %66

66:                                               ; preds = %54
  br label %158

67:                                               ; preds = %54
  %68 = load ptr, ptr %7, align 8
  %69 = load i32, ptr %10, align 4
  %70 = load i32, ptr %11, align 4
  %71 = call i32 @WebPPictureView(ptr noundef %68, i32 noundef 0, i32 noundef 0, i32 noundef %69, i32 noundef %70, ptr noundef %15)
  %72 = icmp ne i32 %71, 0
  br i1 %72, label %74, label %73

73:                                               ; preds = %67
  br label %158

74:                                               ; preds = %67
  %75 = getelementptr inbounds %struct.WebPPicture, ptr %14, i32 0, i32 0
  %76 = load i32, ptr %75, align 8
  %77 = icmp eq i32 %76, 0
  br i1 %77, label %78, label %82

78:                                               ; preds = %74
  %79 = call i32 @WebPPictureYUVAToARGB(ptr noundef %14)
  %80 = icmp ne i32 %79, 0
  br i1 %80, label %82, label %81

81:                                               ; preds = %78
  br label %158

82:                                               ; preds = %78, %74
  %83 = getelementptr inbounds %struct.WebPPicture, ptr %15, i32 0, i32 0
  %84 = load i32, ptr %83, align 8
  %85 = icmp eq i32 %84, 0
  br i1 %85, label %86, label %90

86:                                               ; preds = %82
  %87 = call i32 @WebPPictureYUVAToARGB(ptr noundef %15)
  %88 = icmp ne i32 %87, 0
  br i1 %88, label %90, label %89

89:                                               ; preds = %86
  br label %158

90:                                               ; preds = %86, %82
  store i32 0, ptr %12, align 4
  br label %91

91:                                               ; preds = %138, %90
  %92 = load i32, ptr %12, align 4
  %93 = icmp slt i32 %92, 4
  br i1 %93, label %94, label %141

94:                                               ; preds = %91
  %95 = getelementptr inbounds %struct.WebPPicture, ptr %14, i32 0, i32 13
  %96 = load i32, ptr %95, align 8
  %97 = sext i32 %96 to i64
  %98 = mul i64 4, %97
  store i64 %98, ptr %19, align 8
  %99 = getelementptr inbounds %struct.WebPPicture, ptr %15, i32 0, i32 13
  %100 = load i32, ptr %99, align 8
  %101 = sext i32 %100 to i64
  %102 = mul i64 4, %101
  store i64 %102, ptr %20, align 8
  %103 = load i32, ptr %12, align 4
  %104 = xor i32 %103, 0
  store i32 %104, ptr %21, align 4
  %105 = getelementptr inbounds %struct.WebPPicture, ptr %14, i32 0, i32 12
  %106 = load ptr, ptr %105, align 8
  %107 = load i32, ptr %21, align 4
  %108 = sext i32 %107 to i64
  %109 = getelementptr inbounds i8, ptr %106, i64 %108
  %110 = load i64, ptr %19, align 8
  %111 = getelementptr inbounds %struct.WebPPicture, ptr %15, i32 0, i32 12
  %112 = load ptr, ptr %111, align 8
  %113 = load i32, ptr %21, align 4
  %114 = sext i32 %113 to i64
  %115 = getelementptr inbounds i8, ptr %112, i64 %114
  %116 = load i64, ptr %20, align 8
  %117 = load i32, ptr %10, align 4
  %118 = load i32, ptr %11, align 4
  %119 = load i32, ptr %8, align 4
  %120 = load ptr, ptr %9, align 8
  %121 = load i32, ptr %12, align 4
  %122 = sext i32 %121 to i64
  %123 = getelementptr inbounds float, ptr %120, i64 %122
  %124 = call i32 @WebPPlaneDistortion(ptr noundef %109, i64 noundef %110, ptr noundef %115, i64 noundef %116, i32 noundef %117, i32 noundef %118, i64 noundef 4, i32 noundef %119, ptr noundef %18, ptr noundef %123)
  %125 = icmp ne i32 %124, 0
  br i1 %125, label %127, label %126

126:                                              ; preds = %94
  br label %158

127:                                              ; preds = %94
  %128 = load float, ptr %18, align 4
  %129 = fpext float %128 to double
  %130 = load double, ptr %17, align 8
  %131 = fadd double %130, %129
  store double %131, ptr %17, align 8
  %132 = load i32, ptr %10, align 4
  %133 = load i32, ptr %11, align 4
  %134 = mul nsw i32 %132, %133
  %135 = sitofp i32 %134 to double
  %136 = load double, ptr %16, align 8
  %137 = fadd double %136, %135
  store double %137, ptr %16, align 8
  br label %138

138:                                              ; preds = %127
  %139 = load i32, ptr %12, align 4
  %140 = add nsw i32 %139, 1
  store i32 %140, ptr %12, align 4
  br label %91, !llvm.loop !20

141:                                              ; preds = %91
  %142 = load i32, ptr %8, align 4
  %143 = icmp eq i32 %142, 1
  br i1 %143, label %144, label %149

144:                                              ; preds = %141
  %145 = load double, ptr %17, align 8
  %146 = load double, ptr %16, align 8
  %147 = call double @GetLogSSIM(double noundef %145, double noundef %146)
  %148 = fptrunc double %147 to float
  br label %154

149:                                              ; preds = %141
  %150 = load double, ptr %17, align 8
  %151 = load double, ptr %16, align 8
  %152 = call double @GetPSNR(double noundef %150, double noundef %151)
  %153 = fptrunc double %152 to float
  br label %154

154:                                              ; preds = %149, %144
  %155 = phi float [ %148, %144 ], [ %153, %149 ]
  %156 = load ptr, ptr %9, align 8
  %157 = getelementptr inbounds float, ptr %156, i64 4
  store float %155, ptr %157, align 4
  store i32 1, ptr %13, align 4
  br label %158

158:                                              ; preds = %154, %126, %89, %81, %73, %66
  call void @WebPPictureFree(ptr noundef %14)
  call void @WebPPictureFree(ptr noundef %15)
  %159 = load i32, ptr %13, align 4
  store i32 %159, ptr %5, align 4
  br label %160

160:                                              ; preds = %158, %53, %46
  %161 = load i32, ptr %5, align 4
  ret i32 %161
}