; Function Attrs: nounwind uwtable
define range(i32 0, 2) i32 @WebPPictureDistortion(ptr noundef %0, ptr noundef %1, i32 noundef %2, ptr noundef %3) local_unnamed_addr #0 {
  %5 = alloca %struct.WebPPicture, align 8
  %6 = alloca %struct.WebPPicture, align 8
  %7 = alloca float, align 4
  %8 = icmp eq ptr %0, null
  %9 = icmp eq ptr %1, null
  %or.cond = or i1 %8, %9
  br i1 %or.cond, label %89, label %10

10:                                               ; preds = %4
  %11 = getelementptr inbounds i8, ptr %0, i64 8
  %12 = load i32, ptr %11, align 8
  %13 = getelementptr inbounds i8, ptr %1, i64 8
  %14 = load i32, ptr %13, align 8
  %.not = icmp eq i32 %12, %14
  br i1 %.not, label %15, label %89

15:                                               ; preds = %10
  %16 = getelementptr inbounds i8, ptr %0, i64 12
  %17 = load i32, ptr %16, align 4
  %18 = getelementptr inbounds i8, ptr %1, i64 12
  %19 = load i32, ptr %18, align 4
  %20 = icmp ne i32 %17, %19
  %21 = icmp eq ptr %3, null
  %or.cond3 = or i1 %21, %20
  br i1 %or.cond3, label %89, label %22

22:                                               ; preds = %15
  tail call void @VP8SSIMDspInit() #5
  %23 = call i32 @WebPPictureInitInternal(ptr noundef nonnull %5, i32 noundef 528) #5
  %.not48 = icmp eq i32 %23, 0
  br i1 %.not48, label %89, label %24

24:                                               ; preds = %22
  %25 = call i32 @WebPPictureInitInternal(ptr noundef nonnull %6, i32 noundef 528) #5
  %.not49 = icmp eq i32 %25, 0
  br i1 %.not49, label %89, label %26

26:                                               ; preds = %24
  %27 = load i32, ptr %11, align 8
  %28 = load i32, ptr %16, align 4
  %29 = call i32 @WebPPictureView(ptr noundef nonnull %0, i32 noundef 0, i32 noundef 0, i32 noundef %27, i32 noundef %28, ptr noundef nonnull %5) #5
  %.not50 = icmp eq i32 %29, 0
  br i1 %.not50, label %.loopexit, label %30

30:                                               ; preds = %26
  %31 = call i32 @WebPPictureView(ptr noundef nonnull %1, i32 noundef 0, i32 noundef 0, i32 noundef %27, i32 noundef %28, ptr noundef nonnull %6) #5
  %.not51 = icmp eq i32 %31, 0
  br i1 %.not51, label %.loopexit, label %32

32:                                               ; preds = %30
  %33 = load i32, ptr %5, align 8
  %34 = icmp eq i32 %33, 0
  br i1 %34, label %35, label %37

35:                                               ; preds = %32
  %36 = call i32 @WebPPictureYUVAToARGB(ptr noundef nonnull %5) #5
  %.not52 = icmp eq i32 %36, 0
  br i1 %.not52, label %.loopexit, label %37

37:                                               ; preds = %35, %32
  %38 = load i32, ptr %6, align 8
  %39 = icmp eq i32 %38, 0
  br i1 %39, label %40, label %42

40:                                               ; preds = %37
  %41 = call i32 @WebPPictureYUVAToARGB(ptr noundef nonnull %6) #5
  %.not53 = icmp eq i32 %41, 0
  br i1 %.not53, label %.loopexit, label %42

42:                                               ; preds = %40, %37
  %43 = getelementptr inbounds i8, ptr %5, i64 80
  %44 = getelementptr inbounds i8, ptr %6, i64 80
  %45 = getelementptr inbounds i8, ptr %5, i64 72
  %46 = getelementptr inbounds i8, ptr %6, i64 72
  %47 = mul nsw i32 %28, %27
  %48 = sitofp i32 %47 to double
  br label %49

49:                                               ; preds = %42, %62
  %indvars.iv = phi i64 [ 0, %42 ], [ %indvars.iv.next, %62 ]
  %.04358 = phi double [ 0.000000e+00, %42 ], [ %65, %62 ]
  %.04457 = phi double [ 0.000000e+00, %42 ], [ %66, %62 ]
  %50 = load i32, ptr %43, align 8
  %51 = sext i32 %50 to i64
  %52 = shl nsw i64 %51, 2
  %53 = load i32, ptr %44, align 8
  %54 = sext i32 %53 to i64
  %55 = shl nsw i64 %54, 2
  %56 = load ptr, ptr %45, align 8
  %57 = getelementptr inbounds i8, ptr %56, i64 %indvars.iv
  %58 = load ptr, ptr %46, align 8
  %59 = getelementptr inbounds i8, ptr %58, i64 %indvars.iv
  %60 = getelementptr inbounds float, ptr %3, i64 %indvars.iv
  %61 = call i32 @WebPPlaneDistortion(ptr noundef %57, i64 noundef %52, ptr noundef %59, i64 noundef %55, i32 noundef %27, i32 noundef %28, i64 noundef 4, i32 noundef %2, ptr noundef nonnull %7, ptr noundef %60)
  %.not54 = icmp eq i32 %61, 0
  br i1 %.not54, label %.loopexit, label %62

62:                                               ; preds = %49
  %63 = load float, ptr %7, align 4
  %64 = fpext float %63 to double
  %65 = fadd double %.04358, %64
  %66 = fadd double %.04457, %48
  %indvars.iv.next = add nuw nsw i64 %indvars.iv, 1
  %exitcond.not = icmp eq i64 %indvars.iv.next, 4
  br i1 %exitcond.not, label %67, label %49, !llvm.loop !21

67:                                               ; preds = %62
  %68 = icmp eq i32 %2, 1
  br i1 %68, label %69, label %78

69:                                               ; preds = %67
  %70 = fcmp ogt double %66, 0.000000e+00
  %71 = fdiv double %65, %66
  %72 = select i1 %70, double %71, double 1.000000e+00
  %73 = fcmp olt double %72, 1.000000e+00
  br i1 %73, label %74, label %GetLogSSIM.exit

74:                                               ; preds = %69
  %75 = fsub double 1.000000e+00, %72
  %76 = call double @log10(double noundef %75) #5
  %77 = fmul double %76, -1.000000e+01
  br label %GetLogSSIM.exit

78:                                               ; preds = %67
  %79 = fcmp ogt double %65, 0.000000e+00
  %80 = fcmp ogt double %66, 0.000000e+00
  %or.cond.i = and i1 %80, %79
  br i1 %or.cond.i, label %81, label %GetLogSSIM.exit

81:                                               ; preds = %78
  %82 = fmul double %66, 2.550000e+02
  %83 = fmul double %82, 2.550000e+02
  %84 = fdiv double %65, %83
  %85 = call double @log(double noundef %84) #5
  %86 = fmul double %85, 0xC0115F2CEBF15542
  br label %GetLogSSIM.exit

GetLogSSIM.exit:                                  ; preds = %81, %78, %74, %69
  %.in = phi double [ %77, %74 ], [ 9.900000e+01, %69 ], [ %86, %81 ], [ 9.900000e+01, %78 ]
  %87 = fptrunc double %.in to float
  %88 = getelementptr inbounds i8, ptr %3, i64 16
  store float %87, ptr %88, align 4
  br label %.loopexit

.loopexit:                                        ; preds = %49, %40, %35, %30, %26, %GetLogSSIM.exit
  %.042 = phi i32 [ 1, %GetLogSSIM.exit ], [ 0, %40 ], [ 0, %35 ], [ 0, %30 ], [ 0, %26 ], [ 0, %49 ]
  call void @WebPPictureFree(ptr noundef nonnull %5) #5
  call void @WebPPictureFree(ptr noundef nonnull %6) #5
  br label %89

89:                                               ; preds = %22, %24, %4, %10, %15, %.loopexit
  %.0 = phi i32 [ %.042, %.loopexit ], [ 0, %15 ], [ 0, %10 ], [ 0, %4 ], [ 0, %24 ], [ 0, %22 ]
  ret i32 %.0
}